target datalayout = "e-m:e-p270:32:32-p271:32:32-p272:64:64-i64:64-i128:128-f80:128-n8:16:32:64-S128"
target triple = "x86_64-pc-linux-gnu"

%struct.mbedtls_mpi = type { i32, i64, ptr }

; Function Attrs: mustprogress uwtable
define internal void @_ZL19mbedtls_mpi_zeroizePmm(ptr noundef %0, i64 noundef %1) #1 {
  %3 = alloca ptr, align 8
  %4 = alloca i64, align 8
  store ptr %0, ptr %3, align 8, !tbaa !15
  store i64 %1, ptr %4, align 8, !tbaa !16
  %5 = load ptr, ptr %3, align 8, !tbaa !15
  %6 = load i64, ptr %4, align 8, !tbaa !16
  %7 = mul i64 8, %6
  call void @mbedtls_platform_zeroize(ptr noundef %5, i64 noundef %7)
  ret void
}

; Function Attrs: mustprogress uwtable
define hidden i32 @mbedtls_mpi_grow(ptr noundef %0, i64 noundef %1) #1 {
  %3 = alloca i32, align 4
  %4 = alloca ptr, align 8
  %5 = alloca i64, align 8
  %6 = alloca ptr, align 8
  %7 = alloca i32, align 4
  store ptr %0, ptr %4, align 8, !tbaa !3
  store i64 %1, ptr %5, align 8, !tbaa !16
  call void @llvm.lifetime.start.p0(i64 8, ptr %6) #10
  br label %8

8:                                                ; preds = %2
  br label %9

9:                                                ; preds = %8
  br label %10

10:                                               ; preds = %9
  %11 = load i64, ptr %5, align 8, !tbaa !16
  %12 = icmp ugt i64 %11, 10000
  br i1 %12, label %13, label %14

13:                                               ; preds = %10
  store i32 -16, ptr %3, align 4
  store i32 1, ptr %7, align 4
  br label %56

14:                                               ; preds = %10
  %15 = load ptr, ptr %4, align 8, !tbaa !3
  %16 = getelementptr inbounds nuw %struct.mbedtls_mpi, ptr %15, i32 0, i32 1
  %17 = load i64, ptr %16, align 8, !tbaa !13
  %18 = load i64, ptr %5, align 8, !tbaa !16
  %19 = icmp ult i64 %17, %18
  br i1 %19, label %20, label %55

20:                                               ; preds = %14
  %21 = load i64, ptr %5, align 8, !tbaa !16
  %22 = call noalias ptr @calloc(i64 noundef %21, i64 noundef 8) #11
  store ptr %22, ptr %6, align 8, !tbaa !15
  %23 = icmp eq ptr %22, null
  br i1 %23, label %24, label %25

24:                                               ; preds = %20
  store i32 -16, ptr %3, align 4
  store i32 1, ptr %7, align 4
  br label %56

25:                                               ; preds = %20
  %26 = load ptr, ptr %4, align 8, !tbaa !3
  %27 = getelementptr inbounds nuw %struct.mbedtls_mpi, ptr %26, i32 0, i32 2
  %28 = load ptr, ptr %27, align 8, !tbaa !14
  %29 = icmp ne ptr %28, null
  br i1 %29, label %30, label %48

30:                                               ; preds = %25
  %31 = load ptr, ptr %6, align 8, !tbaa !15
  %32 = load ptr, ptr %4, align 8, !tbaa !3
  %33 = getelementptr inbounds nuw %struct.mbedtls_mpi, ptr %32, i32 0, i32 2
  %34 = load ptr, ptr %33, align 8, !tbaa !14
  %35 = load ptr, ptr %4, align 8, !tbaa !3
  %36 = getelementptr inbounds nuw %struct.mbedtls_mpi, ptr %35, i32 0, i32 1
  %37 = load i64, ptr %36, align 8, !tbaa !13
  %38 = mul i64 %37, 8
  call void @llvm.memcpy.p0.p0.i64(ptr align 8 %31, ptr align 8 %34, i64 %38, i1 false)
  %39 = load ptr, ptr %4, align 8, !tbaa !3
  %40 = getelementptr inbounds nuw %struct.mbedtls_mpi, ptr %39, i32 0, i32 2
  %41 = load ptr, ptr %40, align 8, !tbaa !14
  %42 = load ptr, ptr %4, align 8, !tbaa !3
  %43 = getelementptr inbounds nuw %struct.mbedtls_mpi, ptr %42, i32 0, i32 1
  %44 = load i64, ptr %43, align 8, !tbaa !13
  call void @_ZL19mbedtls_mpi_zeroizePmm(ptr noundef %41, i64 noundef %44)
  %45 = load ptr, ptr %4, align 8, !tbaa !3
  %46 = getelementptr inbounds nuw %struct.mbedtls_mpi, ptr %45, i32 0, i32 2
  %47 = load ptr, ptr %46, align 8, !tbaa !14
  call void @free(ptr noundef %47) #10
  br label %48

48:                                               ; preds = %30, %25
  %49 = load i64, ptr %5, align 8, !tbaa !16
  %50 = load ptr, ptr %4, align 8, !tbaa !3
  %51 = getelementptr inbounds nuw %struct.mbedtls_mpi, ptr %50, i32 0, i32 1
  store i64 %49, ptr %51, align 8, !tbaa !13
  %52 = load ptr, ptr %6, align 8, !tbaa !15
  %53 = load ptr, ptr %4, align 8, !tbaa !3
  %54 = getelementptr inbounds nuw %struct.mbedtls_mpi, ptr %53, i32 0, i32 2
  store ptr %52, ptr %54, align 8, !tbaa !14
  br label %55

55:                                               ; preds = %48, %14
  store i32 0, ptr %3, align 4
  store i32 1, ptr %7, align 4
  br label %56

56:                                               ; preds = %55, %24, %13
  call void @llvm.lifetime.end.p0(i64 8, ptr %6) #10
  %57 = load i32, ptr %3, align 4
  ret i32 %57
}

; Function Attrs: mustprogress uwtable
define hidden i32 @mbedtls_mpi_copy(ptr noundef %0, ptr noundef %1) #1 {
  %3 = alloca i32, align 4
  %4 = alloca ptr, align 8
  %5 = alloca ptr, align 8
  %6 = alloca i32, align 4
  %7 = alloca i64, align 8
  %8 = alloca i32, align 4
  store ptr %0, ptr %4, align 8, !tbaa !3
  store ptr %1, ptr %5, align 8, !tbaa !3
  call void @llvm.lifetime.start.p0(i64 4, ptr %6) #10
  store i32 0, ptr %6, align 4, !tbaa !19
  call void @llvm.lifetime.start.p0(i64 8, ptr %7) #10
  br label %9

9:                                                ; preds = %2
  br label %10

10:                                               ; preds = %9
  br label %11

11:                                               ; preds = %10
  br label %12

12:                                               ; preds = %11
  br label %13

13:                                               ; preds = %12
  br label %14

14:                                               ; preds = %13
  %15 = load ptr, ptr %4, align 8, !tbaa !3
  %16 = load ptr, ptr %5, align 8, !tbaa !3
  %17 = icmp eq ptr %15, %16
  br i1 %17, label %18, label %19

18:                                               ; preds = %14
  store i32 0, ptr %3, align 4
  store i32 1, ptr %8, align 4
  br label %107

19:                                               ; preds = %14
  %20 = load ptr, ptr %5, align 8, !tbaa !3
  %21 = getelementptr inbounds nuw %struct.mbedtls_mpi, ptr %20, i32 0, i32 1
  %22 = load i64, ptr %21, align 8, !tbaa !13
  %23 = icmp eq i64 %22, 0
  br i1 %23, label %24, label %40

24:                                               ; preds = %19
  %25 = load ptr, ptr %4, align 8, !tbaa !3
  %26 = getelementptr inbounds nuw %struct.mbedtls_mpi, ptr %25, i32 0, i32 1
  %27 = load i64, ptr %26, align 8, !tbaa !13
  %28 = icmp ne i64 %27, 0
  br i1 %28, label %29, label %39

29:                                               ; preds = %24
  %30 = load ptr, ptr %4, align 8, !tbaa !3
  %31 = getelementptr inbounds nuw %struct.mbedtls_mpi, ptr %30, i32 0, i32 0
  store i32 1, ptr %31, align 8, !tbaa !8
  %32 = load ptr, ptr %4, align 8, !tbaa !3
  %33 = getelementptr inbounds nuw %struct.mbedtls_mpi, ptr %32, i32 0, i32 2
  %34 = load ptr, ptr %33, align 8, !tbaa !14
  %35 = load ptr, ptr %4, align 8, !tbaa !3
  %36 = getelementptr inbounds nuw %struct.mbedtls_mpi, ptr %35, i32 0, i32 1
  %37 = load i64, ptr %36, align 8, !tbaa !13
  %38 = mul i64 %37, 8
  call void @llvm.memset.p0.i64(ptr align 8 %34, i8 0, i64 %38, i1 false)
  br label %39

39:                                               ; preds = %29, %24
  store i32 0, ptr %3, align 4
  store i32 1, ptr %8, align 4
  br label %107

40:                                               ; preds = %19
  %41 = load ptr, ptr %5, align 8, !tbaa !3
  %42 = getelementptr inbounds nuw %struct.mbedtls_mpi, ptr %41, i32 0, i32 1
  %43 = load i64, ptr %42, align 8, !tbaa !13
  %44 = sub i64 %43, 1
  store i64 %44, ptr %7, align 8, !tbaa !16
  br label %45

45:                                               ; preds = %58, %40
  %46 = load i64, ptr %7, align 8, !tbaa !16
  %47 = icmp ugt i64 %46, 0
  br i1 %47, label %48, label %61

48:                                               ; preds = %45
  %49 = load ptr, ptr %5, align 8, !tbaa !3
  %50 = getelementptr inbounds nuw %struct.mbedtls_mpi, ptr %49, i32 0, i32 2
  %51 = load ptr, ptr %50, align 8, !tbaa !14
  %52 = load i64, ptr %7, align 8, !tbaa !16
  %53 = getelementptr inbounds nuw i64, ptr %51, i64 %52
  %54 = load i64, ptr %53, align 8, !tbaa !16
  %55 = icmp ne i64 %54, 0
  br i1 %55, label %56, label %57

56:                                               ; preds = %48
  br label %61

57:                                               ; preds = %48
  br label %58

58:                                               ; preds = %57
  %59 = load i64, ptr %7, align 8, !tbaa !16
  %60 = add i64 %59, -1
  store i64 %60, ptr %7, align 8, !tbaa !16
  br label %45, !llvm.loop !20

61:                                               ; preds = %56, %45
  %62 = load i64, ptr %7, align 8, !tbaa !16
  %63 = add i64 %62, 1
  store i64 %63, ptr %7, align 8, !tbaa !16
  %64 = load ptr, ptr %5, align 8, !tbaa !3
  %65 = getelementptr inbounds nuw %struct.mbedtls_mpi, ptr %64, i32 0, i32 0
  %66 = load i32, ptr %65, align 8, !tbaa !8
  %67 = load ptr, ptr %4, align 8, !tbaa !3
  %68 = getelementptr inbounds nuw %struct.mbedtls_mpi, ptr %67, i32 0, i32 0
  store i32 %66, ptr %68, align 8, !tbaa !8
  %69 = load ptr, ptr %4, align 8, !tbaa !3
  %70 = getelementptr inbounds nuw %struct.mbedtls_mpi, ptr %69, i32 0, i32 1
  %71 = load i64, ptr %70, align 8, !tbaa !13
  %72 = load i64, ptr %7, align 8, !tbaa !16
  %73 = icmp ult i64 %71, %72
  br i1 %73, label %74, label %84

74:                                               ; preds = %61
  br label %75

75:                                               ; preds = %74
  %76 = load ptr, ptr %4, align 8, !tbaa !3
  %77 = load i64, ptr %7, align 8, !tbaa !16
  %78 = call i32 @mbedtls_mpi_grow(ptr noundef %76, i64 noundef %77)
  store i32 %78, ptr %6, align 4, !tbaa !19
  %79 = icmp ne i32 %78, 0
  br i1 %79, label %80, label %81

80:                                               ; preds = %75
  br label %105

81:                                               ; preds = %75
  br label %82

82:                                               ; preds = %81
  br label %83

83:                                               ; preds = %82
  br label %96

84:                                               ; preds = %61
  %85 = load ptr, ptr %4, align 8, !tbaa !3
  %86 = getelementptr inbounds nuw %struct.mbedtls_mpi, ptr %85, i32 0, i32 2
  %87 = load ptr, ptr %86, align 8, !tbaa !14
  %88 = load i64, ptr %7, align 8, !tbaa !16
  %89 = getelementptr inbounds nuw i64, ptr %87, i64 %88
  %90 = load ptr, ptr %4, align 8, !tbaa !3
  %91 = getelementptr inbounds nuw %struct.mbedtls_mpi, ptr %90, i32 0, i32 1
  %92 = load i64, ptr %91, align 8, !tbaa !13
  %93 = load i64, ptr %7, align 8, !tbaa !16
  %94 = sub i64 %92, %93
  %95 = mul i64 %94, 8
  call void @llvm.memset.p0.i64(ptr align 8 %89, i8 0, i64 %95, i1 false)
  br label %96

96:                                               ; preds = %84, %83
  %97 = load ptr, ptr %4, align 8, !tbaa !3
  %98 = getelementptr inbounds nuw %struct.mbedtls_mpi, ptr %97, i32 0, i32 2
  %99 = load ptr, ptr %98, align 8, !tbaa !14
  %100 = load ptr, ptr %5, align 8, !tbaa !3
  %101 = getelementptr inbounds nuw %struct.mbedtls_mpi, ptr %100, i32 0, i32 2
  %102 = load ptr, ptr %101, align 8, !tbaa !14
  %103 = load i64, ptr %7, align 8, !tbaa !16
  %104 = mul i64 %103, 8
  call void @llvm.memcpy.p0.p0.i64(ptr align 8 %99, ptr align 8 %102, i64 %104, i1 false)
  br label %105

105:                                              ; preds = %96, %80
  %106 = load i32, ptr %6, align 4, !tbaa !19
  store i32 %106, ptr %3, align 4
  store i32 1, ptr %8, align 4
  br label %107

107:                                              ; preds = %105, %39, %18
  call void @llvm.lifetime.end.p0(i64 8, ptr %7) #10
  call void @llvm.lifetime.end.p0(i64 4, ptr %6) #10
  %108 = load i32, ptr %3, align 4
  ret i32 %108
}