; Function Attrs: mustprogress uwtable
define hidden range(i32 -16, 1) i32 @mbedtls_mpi_copy(ptr noundef captures(address) %0, ptr noundef readonly captures(address) %1) local_unnamed_addr #1 {
  %3 = icmp eq ptr %0, %1
  br i1 %3, label %mbedtls_mpi_grow.exit.thread, label %4

4:                                                ; preds = %2
  %5 = getelementptr inbounds nuw i8, ptr %1, i64 8
  %6 = load i64, ptr %5, align 8, !tbaa !12
  %7 = icmp eq i64 %6, 0
  br i1 %7, label %9, label %.preheader

.preheader:                                       ; preds = %4
  %8 = getelementptr inbounds nuw i8, ptr %1, i64 16
  br label %16

9:                                                ; preds = %4
  %10 = getelementptr inbounds nuw i8, ptr %0, i64 8
  %11 = load i64, ptr %10, align 8, !tbaa !12
  %.not39 = icmp eq i64 %11, 0
  br i1 %.not39, label %mbedtls_mpi_grow.exit.thread, label %12

12:                                               ; preds = %9
  store i32 1, ptr %0, align 8, !tbaa !3
  %13 = getelementptr inbounds nuw i8, ptr %0, i64 16
  %14 = load ptr, ptr %13, align 8, !tbaa !11
  %15 = shl i64 %11, 3
  tail call void @llvm.memset.p0.i64(ptr align 8 %14, i8 0, i64 %15, i1 false)
  br label %mbedtls_mpi_grow.exit.thread

16:                                               ; preds = %.preheader, %17
  %.0.in = phi i64 [ %.0, %17 ], [ %6, %.preheader ]
  %.0 = add i64 %.0.in, -1
  %.not = icmp eq i64 %.0, 0
  br i1 %.not, label %.thread, label %17

17:                                               ; preds = %16
  %18 = load ptr, ptr %8, align 8, !tbaa !11
  %19 = getelementptr inbounds nuw i64, ptr %18, i64 %.0
  %20 = load i64, ptr %19, align 8, !tbaa !13
  %.not37 = icmp eq i64 %20, 0
  br i1 %.not37, label %16, label %21, !llvm.loop !16

21:                                               ; preds = %17
  %22 = load i32, ptr %1, align 8, !tbaa !3
  store i32 %22, ptr %0, align 8, !tbaa !3
  %23 = getelementptr inbounds nuw i8, ptr %0, i64 8
  %24 = load i64, ptr %23, align 8, !tbaa !12
  %25 = icmp ult i64 %24, %.0.in
  br i1 %25, label %30, label %42

.thread:                                          ; preds = %16
  %26 = load i32, ptr %1, align 8, !tbaa !3
  store i32 %26, ptr %0, align 8, !tbaa !3
  %27 = getelementptr inbounds nuw i8, ptr %0, i64 8
  %28 = load i64, ptr %27, align 8, !tbaa !12
  %29 = icmp eq i64 %28, 0
  br i1 %29, label %.thread40, label %42

30:                                               ; preds = %21
  %31 = icmp ugt i64 %.0.in, 10000
  br i1 %31, label %mbedtls_mpi_grow.exit.thread, label %.thread40

.thread40:                                        ; preds = %.thread, %30
  %32 = phi ptr [ %23, %30 ], [ %27, %.thread ]
  %33 = phi i64 [ %24, %30 ], [ 0, %.thread ]
  %34 = tail call noalias ptr @calloc(i64 noundef %.0.in, i64 noundef 8) #16
  %35 = icmp eq ptr %34, null
  br i1 %35, label %mbedtls_mpi_grow.exit.thread, label %36

36:                                               ; preds = %.thread40
  %37 = getelementptr inbounds nuw i8, ptr %0, i64 16
  %38 = load ptr, ptr %37, align 8, !tbaa !11
  %.not.i = icmp eq ptr %38, null
  br i1 %.not.i, label %mbedtls_mpi_grow.exit, label %39

39:                                               ; preds = %36
  %40 = shl nuw nsw i64 %33, 3
  tail call void @llvm.memcpy.p0.p0.i64(ptr nonnull align 8 %34, ptr nonnull align 8 %38, i64 %40, i1 false)
  tail call void @mbedtls_platform_zeroize(ptr noundef nonnull %38, i64 noundef %40)
  %41 = load ptr, ptr %37, align 8, !tbaa !11
  tail call void @free(ptr noundef %41) #15
  br label %mbedtls_mpi_grow.exit

mbedtls_mpi_grow.exit:                            ; preds = %36, %39
  store i64 %.0.in, ptr %32, align 8, !tbaa !12
  store ptr %34, ptr %37, align 8, !tbaa !11
  br label %49

42:                                               ; preds = %.thread, %21
  %43 = phi i64 [ %28, %.thread ], [ %24, %21 ]
  %44 = getelementptr inbounds nuw i8, ptr %0, i64 16
  %45 = load ptr, ptr %44, align 8, !tbaa !11
  %46 = getelementptr inbounds nuw i64, ptr %45, i64 %.0.in
  %47 = sub nuw i64 %43, %.0.in
  %48 = shl i64 %47, 3
  tail call void @llvm.memset.p0.i64(ptr nonnull align 8 %46, i8 0, i64 %48, i1 false)
  %.pre = load ptr, ptr %44, align 8, !tbaa !11
  br label %49

49:                                               ; preds = %mbedtls_mpi_grow.exit, %42
  %50 = phi ptr [ %34, %mbedtls_mpi_grow.exit ], [ %.pre, %42 ]
  %51 = load ptr, ptr %8, align 8, !tbaa !11
  %52 = shl i64 %.0.in, 3
  tail call void @llvm.memcpy.p0.p0.i64(ptr align 8 %50, ptr align 8 %51, i64 %52, i1 false)
  br label %mbedtls_mpi_grow.exit.thread

mbedtls_mpi_grow.exit.thread:                     ; preds = %.thread40, %30, %49, %9, %12, %2
  %.028 = phi i32 [ 0, %2 ], [ 0, %12 ], [ 0, %9 ], [ 0, %49 ], [ -16, %30 ], [ -16, %.thread40 ]
  ret i32 %.028
}